; Function Attrs: nounwind sspstrong uwtable
define internal void @sysbus_ahci_class_init(ptr noundef %klass, ptr readnone captures(none) %data) #0 {
entry:
  %call.i = tail call ptr @object_class_dynamic_cast_assert(ptr noundef %klass, ptr noundef nonnull @.str.234, ptr noundef nonnull @.str.137, i32 noundef 77, ptr noundef nonnull @__func__.DEVICE_CLASS) #12
  %realize = getelementptr inbounds nuw i8, ptr %call.i, i64 144
  store ptr @sysbus_ahci_realize, ptr %realize, align 8
  %vmsd = getelementptr inbounds nuw i8, ptr %call.i, i64 160
  store ptr @vmstate_sysbus_ahci, ptr %vmsd, align 8
  tail call void @device_class_set_props(ptr noundef %call.i, ptr noundef nonnull @sysbus_ahci_properties) #12
  %reset = getelementptr inbounds nuw i8, ptr %call.i, i64 136
  store ptr @sysbus_ahci_reset, ptr %reset, align 8
  %categories = getelementptr inbounds nuw i8, ptr %call.i, i64 96
  %0 = load i64, ptr %categories, align 8
  %or.i = or i64 %0, 4
  store i64 %or.i, ptr %categories, align 8
  ret void
}